; Function Attrs: mustprogress uwtable
define void @_ZN3zmq8reaper_t4stopEv(ptr noundef nonnull align 8 dereferenceable(240) %this) local_unnamed_addr #0 align 2 {
entry:
  %_mailbox.i = getelementptr inbounds i8, ptr %this, i64 32
  %call2 = tail call noundef zeroext i1 @_ZNK3zmq9mailbox_t5validEv(ptr noundef nonnull align 8 dereferenceable(176) %_mailbox.i)
  br i1 %call2, label %if.then, label %if.end

if.then:                                          ; preds = %entry
  tail call void @_ZN3zmq8object_t9send_stopEv(ptr noundef nonnull align 8 dereferenceable(20) %this)
  br label %if.end

if.end:                                           ; preds = %if.then, %entry
  ret void
}